; Function Attrs: mustprogress uwtable
define hidden noalias noundef ptr @_ZN7datalog21table_relation_plugin22mk_filter_identical_fnERKNS_13relation_baseEjPKj(ptr noundef nonnull readonly align 8 captures(none) dereferenceable(48) %0, ptr noundef nonnull readonly align 8 captures(none) dereferenceable(28) %1, i32 noundef %2, ptr noundef %3) unnamed_addr #3 align 2 personality ptr @__gxx_personality_v0 {
  %5 = getelementptr inbounds nuw i8, ptr %1, i64 8
  %6 = load ptr, ptr %5, align 8, !tbaa !54
  %7 = getelementptr inbounds nuw i8, ptr %6, i64 32
  %8 = load i32, ptr %7, align 8, !tbaa !55
  %9 = icmp eq i32 %8, 1
  br i1 %9, label %10, label %18

10:                                               ; preds = %4
  %11 = getelementptr inbounds nuw i8, ptr %0, i64 24
  %12 = load ptr, ptr %11, align 8, !tbaa !23
  %13 = getelementptr inbounds nuw i8, ptr %1, i64 32
  %14 = load ptr, ptr %13, align 8, !tbaa !47
  %15 = tail call noundef ptr @_ZN7datalog16relation_manager22mk_filter_identical_fnERKNS_10table_baseEjPKj(ptr noundef nonnull align 8 dereferenceable(200) %12, ptr noundef nonnull align 8 dereferenceable(36) %14, i32 noundef %2, ptr noundef %3)
  %16 = tail call noalias noundef ptr @_ZN6memory8allocateEm(i64 noundef 16)
  store ptr getelementptr inbounds nuw inrange(-16, 40) (i8, ptr @_ZTVN7datalog21table_relation_plugin13tr_mutator_fnE, i64 16), ptr %16, align 8, !tbaa !32
  %17 = getelementptr inbounds nuw i8, ptr %16, i64 8
  store ptr %15, ptr %17, align 8, !tbaa !72
  br label %18

18:                                               ; preds = %4, %10
  %.0 = phi ptr [ %16, %10 ], [ null, %4 ]
  ret ptr %.0
}